ccopy_reg
_reconstructor
p1
(cStackWithPoint
FIFOWithPoint
p2
c__builtin__
list
p3
(lp4
(VM:\u005c
(lp5
(dp6
S'isDir'
p7
I01
sS'name'
p8
VM:\u005cDeveloper
p9
sS'h'
I1258
sS'pos'
p10
(lp11
I0
aI33
asS'w'
F10
sS'size'
p12
L1272313433L
sa(dp13
g7
I01
sg8
VM:\u005cMovie
p14
sS'h'
I1258
sg10
(lp15
F10
aI33
asS'w'
F2140
sg12
L264141363414L
sa(dp16
g7
I01
sg8
VM:\u005cVideo
p17
sS'h'
F342
sg10
(lp18
F2151
aI33
asS'w'
F267
sg12
L8998884769L
sa(dp19
g7
I01
sg8
VM:\u005cSystem Volume Information
p20
sS'h'
F0
sg10
(lp21
F2418
aI33
asS'w'
F94
sg12
L0L
sa(dp22
g7
I01
sg8
VM:\u005cMusic
p23
sS'h'
F342
sg10
(lp24
F2418
aF33
asS'w'
F94
sg12
L3178778903L
sa(dp25
g7
I01
sg8
VM:\u005csc
p26
sS'h'
F43
sg10
(lp27
F2151
aF375
asS'w'
F164
sg12
L706350739L
sa(dp28
g7
I01
sg8
VM:\u005c\u5236\u4f5c
p29
sS'h'
F43
sg10
(lp30
F2315
aF375
asS'w'
F176
sg12
L764380787L
sa(dp31
g7
I01
sg8
VM:\u005c\u5de5\u4f5c
p32
sS'h'
F35
sg10
(lp33
F2491
aF375
asS'w'
F20
sg12
L70935828L
sa(dp34
g7
I01
sg8
VM:\u005c$RECYCLE.BIN
p35
sS'h'
F7
sg10
(lp36
F2491
aF410
asS'w'
F0
sg12
L129L
sa(dp37
g7
I01
sg8
VM:\u005cWinTV
p38
sS'h'
F7
sg10
(lp39
F2491
aF410
asS'w'
F13
sg12
L11241436L
sa(dp40
g7
I01
sg8
VM:\u005cHauppauge Capture
p41
sS'h'
F6
sg10
(lp42
F2505
aF410
asS'w'
F5
sg12
L4125561L
sa(dp43
g7
I01
sg8
VM:\u005cSteamLibrary
p44
sS'h'
F0
sg10
(lp45
F2505
aF416
asS'w'
F5
sg12
L419104L
sa(dp46
g7
I01
sg8
VM:\u005cWinTV_Videos
p47
sS'h'
F591
sg10
(lp48
F2151
aF418
asS'w'
F362
sg12
L21011652868L
sa(dp49
g7
I01
sg8
VM:\u005cTools
p50
sS'h'
F279
sg10
(lp51
F2151
aF1011
asS'w'
F303
sg12
L8339124210L
sa(dp52
g7
I01
sg8
VM:\u005c\u5b58\u50a8
p53
sS'h'
F279
sg10
(lp54
F2454
aF1011
asS'w'
F58
sg12
L1599663936L
satp55
a(VM:\u005cMovie\u005c
p56
(lp57
(dp58
g7
I01
sg8
VM:\u005cMovie\u005c\u98de\u9e1f\u5a31\u4e50(bbs.hdbird.com).\u653b\u58f3\u673a\u52a8\u961f4.720p.\u65e5\u8bed\u4e2d\u5b57
p59
sS'h'
F120
sg10
(lp60
I0
aI33
asS'w'
F145
sg12
L1468064223L
sa(dp61
g7
I01
sg8
VM:\u005cMovie\u005c\u98de\u9e1f\u5a31\u4e50(bbs.hdbird.com).\u5077\u5fc3\u8d3c.720p.\u97e9\u8bed\u4e2d\u5b57
p62
sS'h'
F191
sg10
(lp63
I0
aF153
asS'w'
F145
sg12
L2345437769L
sa(dp64
g7
I00
sg8
VM:\u005cMovie\u005cGhost.in.the.Shell.1995.1080p.Bluray.DTSES.x264-SHiTSoNy.mkv
p65
sS'h'
F312
sg10
(lp66
F145
aI33
asS'w'
F179
sg12
L4687503719L
sa(dp67
g7
I01
sg8
VM:\u005cMovie\u005c\u3010\u5947\u5e7b\u5b7d\u7de3\u3011\u3010DVD-RMVB.\u4e2d\u5b57\u3011\u30102011\u6700\u65b0\u97e9\u56fd\u9650\u5236\u7ea7\u5267\u60c5\u5927\u7247\u3011
p68
sS'h'
F125
sg10
(lp69
I0
aF345
asS'w'
F46
sg12
L493358060L
sa(dp70
g7
I01
sg8
VM:\u005cMovie\u005c\u98de\u9e1f\u5a31\u4e50(bbs.hdbird.com).3D\u8c6a\u60c5.720p.\u56fd\u7ca4\u53cc\u8bed
p71
sS'h'
F125
sg10
(lp72
F46
aF345
asS'w'
F278
sg12
L2935761833L
sa(dp73
g7
I01
sg8
VM:\u005cMovie\u005c2010.10.29.[\u65b0\u94c1\u8840\u6218\u58eb].Predators.2010.BDRip.480p.AC3.x264-CHD
p74
sS'h'
F85
sg10
(lp75
F325
aI33
asS'w'
F208
sg12
L1488974192L
sa(dp76
g7
I01
sg8
VM:\u005cMovie\u005cThe.Hangover.\u5bbf\u9189\u4e09\u90e8\u66f2
p77
sS'h'
F352
sg10
(lp78
F325
aF118
asS'w'
F208
sg12
L6155340181L
sa(dp79
g7
I01
sg8
VM:\u005cMovie\u005c\u98de\u9e1f\u5a31\u4e50(bbs.hdbird.com).\u51ac\u5929\u7684\u6545\u4e8b.720p.\u4e2d\u82f1\u5b57\u5e55
p80
sS'h'
F270
sg10
(lp81
F533
aI33
asS'w'
F129
sg12
L2935860182L
sa(dp82
g7
I01
sg8
VM:\u005cMovie\u005c\u771f\u7231\u81f3\u4e0a(10\u5468\u5e74\u7248)@\u5723\u57ce\u5357\u5bab
p83
sS'h'
F270
sg10
(lp84
F662
aI33
asS'w'
F179
sg12
L4085079465L
sa(dp85
g7
I01
sg8
VM:\u005cMovie\u005c09.08.24.\u8096\u7533\u514b\u7684\u6551\u8d4e
p86
sS'h'
F167
sg10
(lp87
F533
aF303
asS'w'
F136
sg12
L1934284752L
sa(dp88
g7
I01
sg8
VM:\u005cMovie\u005c2011.03.31.\u9ec4\u6d77.The Yellow Sea 2010 720p HDTV MP2 2.0 x264-Death
p89
sS'h'
F167
sg10
(lp90
F669
aF303
asS'w'
F172
sg12
L2434023859L
sa(dp91
g7
I01
sg8
VM:\u005cMovie\u005c\u91cd\u8fd4\u4e2d\u4e16\u7eaa\uffe1\u5723\u57ce\u6d6a\u5b50
p92
sS'h'
F38
sg10
(lp93
I0
aF471
asS'w'
F146
sg12
L472678338L
sa(dp94
g7
I00
sg8
VM:\u005cMovie\u005c\u6ca1\u6709\u7231,\u6ca1\u6709\u6551\u8d4e.txt
p95
sS'h'
F38
sg10
(lp96
F146
aF471
asS'w'
F0
sg12
L0L
sa(dp97
g7
I01
sg8
VM:\u005cMovie\u005c\u98de\u9e1f\u5a31\u4e50(bbs.hdbird.com).\u8499\u7f9e\u4e4b\u65c5.720p.\u4e2d\u82f1\u5b57\u5e55
p98
sS'h'
F190
sg10
(lp99
I0
aF509
asS'w'
F146
sg12
L2348139931L
sa(dp100
g7
I01
sg8
VM:\u005cMovie\u005cThe.English.Patient[Eng]
p101
sS'h'
F68
sg10
(lp102
I0
aF700
asS'w'
F146
sg12
L838575249L
sa(dp103
g7
I01
sg8
VM:\u005cMovie\u005cbbs.wofei.net@\u65af\u5df4\u8fbe300\u52c7\u58eb
p104
sS'h'
F181
sg10
(lp105
F146
aF471
asS'w'
F32
sg12
L497901277L
sa(dp106
g7
I01
sg8
VM:\u005cMovie\u005c\u98de\u9e1f\u5a31\u4e50(bbs.hdbird.com).\u9f99\u7eb9\u8eab\u7684\u5973\u5b69.720P.\u4e2d\u6587\u5b57\u5e55
p107
sS'h'
F181
sg10
(lp108
F178
aF471
asS'w'
F192
sg12
L2938840300L
sa(dp109
g7
I01
sg8
VM:\u005cMovie\u005c\u98de\u9e1f\u5a31\u4e50(bbs.hdbird.com).\u4eba\u7c7b\u6e05\u9664\u8ba1\u5212.720p.\u4e2d\u82f1\u5b57\u5e55
p110
sS'h'
F116
sg10
(lp111
F146
aF652
asS'w'
F225
sg12
L2203327377L
sa(dp112
g7
I00
sg8
VM:\u005cMovie\u005c\u5c11\u6797\u8db3\u7403.Shaolin.Socce.2001.HDTV.2Audio.MiniSD-TLF.mkv
p113
sS'h'
F167
sg10
(lp114
I0
aF769
asS'w'
F58
sg12
L821584421L
sa(dp115
g7
I00
sg8
VM:\u005cMovie\u005c\u4e91\u56fe__\u9884\u544a__2_167123_399868.xv
p116
sS'h'
F5
sg10
(lp117
I0
aF936
asS'w'
F58
sg12
L28336128L
sa(dp118
g7
I01
sg8
VM:\u005cMovie\u005c\u98de\u9e1f\u5a31\u4e50(bbs.hdbird.com).\u559c\u7231\u591c\u84b23.\u56fd\u7ca4\u53cc\u8bed
p119
sS'h'
F173
sg10
(lp120
F58
aF769
asS'w'
F161
sg12
L2346464945L
sa(dp121
g7
I01
sg8
VM:\u005cMovie\u005c\u98de\u9e1f\u5a31\u4e50(bbs.hdbird.com).\u673a\u68b0\u5371\u60c5.720p.\u4e2d\u82f1\u5b57\u5e55
p122
sS'h'
F173
sg10
(lp123
F220
aF769
asS'w'
F151
sg12
L2199925490L
sa(dp124
g7
I01
sg8
VM:\u005cMovie\u005c\u84dd\u8272\u590f\u604b
p125
sS'h'
F346
sg10
(lp126
I0
aF942
asS'w'
F49
sg12
L1445348821L
sa(dp127
g7
I00
sg8
VM:\u005cMovie\u005cThe.Hangover.2009.UNRATED.BluRay.1080p.DTS.x264-CHD (1).mkv
p128
sS'h'
F346
sg10
(lp129
F49
aF942
asS'w'
F322
sg12
L9356633963L
sa(dp130
g7
I01
sg8
VM:\u005cMovie\u005c\u98de\u9e1f\u5a31\u4e50(bbs.hdbird.com).\u9003\u51fa\u7194\u7089.720p.\u4e2d\u82f1\u5b57\u5e55
p131
sS'h'
F113
sg10
(lp132
F372
aF471
asS'w'
F0
sg12
L527582L
sa(dp133
g7
I01
sg8
VM:\u005cMovie\u005c\u98de\u9e1f\u5a31\u4e50(bbs.hdbird.com).\u6df1\u7a7a\u5931\u5fc6.720P.\u4e2d\u82f1\u5b57\u5e55
p134
sS'h'
F113
sg10
(lp135
F372
aF471
asS'w'
F231
sg12
L2203488265L
sa(dp136
g7
I01
sg8
VM:\u005cMovie\u005c\u3010\u5343\u4e0e\u5343\u5bfb.Spirited.Away.2001\u3011
p137
sS'h'
F178
sg10
(lp138
F372
aF584
asS'w'
F35
sg12
L539409461L
sa(dp139
g7
I01
sg8
VM:\u005cMovie\u005cThe.Fifth.(5).Estate.\u7b2c\u4e94\u9636\u5c42.720p.\u4e2d\u82f1\u5b57\u5e55
p140
sS'h'
F178
sg10
(lp141
F407
aF584
asS'w'
F196
sg12
L2937042624L
sa(dp142
g7
I01
sg8
VM:\u005cMovie\u005c\u98de\u9e1f\u5a31\u4e50(bbs.hdbird.com).\u94f6\u7ffc\u6740\u624b.720P.\u4e2d\u82f1\u5b57\u5e55
p143
sS'h'
F117
sg10
(lp144
F604
aF471
asS'w'
F238
sg12
L2344548671L
sa(dp145
g7
I00
sg8
VM:\u005cMovie\u005c\u76ee\u5f55.txt
p146
sS'h'
F0
sg10
(lp147
F604
aF588
asS'w'
F88
sg12
L46L
sa(dp148
g7
I00
sg8
VM:\u005cMovie\u005c\u6708\u7403.Moon.2009.BD.MiniSD-TLF.mkv
p149
sS'h'
F97
sg10
(lp150
F604
aF588
asS'w'
F88
sg12
L729605631L
sa(dp151
g7
I01
sg8
VM:\u005cMovie\u005c\u6d1b\u6749\u77f6\u4e4b\u6218DVD\u4e2d\u5b57
p152
sS'h'
F75
sg10
(lp153
F604
aF686
asS'w'
F88
sg12
L564688743L
sa(dp154
g7
I01
sg8
VM:\u005cMovie\u005c2010.04.05.\u9f99\u7eb9\u8eab\u7684\u5973\u5b693
p155
sS'h'
F174
sg10
(lp156
F692
aF588
asS'w'
F149
sg12
L2202649744L
sa(dp157
g7
I01
sg8
VM:\u005cMovie\u005c\u98de\u9e1f\u5a31\u4e50(bbs.hdbird.com).\u4e71\u4e16\u513f\u5973.720p.\u4e2d\u82f1\u5b57\u5e55
p158
sS'h'
F193
sg10
(lp159
F372
aF763
asS'w'
F289
sg12
L4693408069L
sa(dp160
g7
I01
sg8
VM:\u005cMovie\u005c\u98de\u9e1f\u5a31\u4e50(bbs.hdbird.com).2001\uff1a\u592a\u7a7a\u6f2b\u6e38.720p.\u4e2d\u82f1\u5b57\u5e55
p161
sS'h'
F193
sg10
(lp162
F661
aF763
asS'w'
F181
sg12
L2934206517L
sa(dp163
g7
I01
sg8
VM:\u005cMovie\u005c20090616 \u901f\u5ea6\u4e0e\u6fc0\u60c54
p164
sS'h'
F332
sg10
(lp165
F372
aF956
asS'w'
F23
sg12
L660351759L
sa(dp166
g7
I01
sg8
VM:\u005cMovie\u005cVideo
p167
sS'h'
F332
sg10
(lp168
F395
aF956
asS'w'
F344
sg12
L9614307766L
sa(dp169
g7
I00
sg8
VM:\u005cMovie\u005c\u795e\u5947\u5973\u4fa0.Wonder.Woman.2009.BDRip.x264.AAC.miniSD-TLF.mkv
p170
sS'h'
F58
sg10
(lp171
F740
aF956
asS'w'
F102
sg12
L498225982L
sa(dp172
g7
I01
sg8
VM:\u005cMovie\u005c\u98de\u9e1f\u5a31\u4e50(bbs.hdbird.com).\u4e50\u9ad8\u5927\u7535\u5f71.720p.\u4e2d\u82f1\u5b57\u5e55
p173
sS'h'
F273
sg10
(lp174
F740
aF1014
asS'w'
F102
sg12
L2346606862L
sa(dp175
g7
I00
sg8
VM:\u005cMovie\u005c\u6587\u672c\u6587\u4ef6.txt
p176
sS'h'
F42
sg10
(lp177
F844
aI33
asS'w'
F0
sg12
L69L
sa(dp178
g7
I01
sg8
VM:\u005cMovie\u005c\u4e00\u9a91\u5f53\u5343
p179
sS'h'
F42
sg10
(lp180
F844
aI33
asS'w'
F226
sg12
L811233141L
sa(dp181
g7
I01
sg8
VM:\u005cMovie\u005c\u98de\u9e1f\u5a31\u4e50(bbs.hdbird.com).\u5c11\u5e74\u65f6\u4ee3.720p.\u4e2d\u82f1\u5b57\u5e55
p182
sS'h'
F192
sg10
(lp183
F844
aF75
asS'w'
F227
sg12
L3670430312L
sa(dp184
g7
I01
sg8
VM:\u005cMovie\u005c\u3010\u7cd6\u5409\u53ef\u5f97 2010\u3011
p185
sS'h'
F153
sg10
(lp186
F844
aF268
asS'w'
F34
sg12
L446856806L
sa(dp187
g7
I01
sg8
VM:\u005cMovie\u005c\u3010\u901f\u5ea6\u4e0e\u6fc0\u60c56\u3011 Furious.6.2013.HDTV.720p.x264.AAC-LZHD
p188
sS'h'
F153
sg10
(lp189
F878
aF268
asS'w'
F192
sg12
L2483599081L
sa(dp190
g7
I01
sg8
VM:\u005cMovie\u005c\u5357\u65b9\u516c\u56ed_\u9b54\u517d\u4e16\u754c
p191
sS'h'
F125
sg10
(lp192
F844
aF421
asS'w'
F17
sg12
L182766240L
sa(dp193
g7
I01
sg8
VM:\u005cMovie\u005c2010.10.30.[\u793e\u4ea4\u7f51\u7edc].The.Social.Network.DVDSCR.XviD-NoSCR
p194
sS'h'
F125
sg10
(lp195
F861
aF421
asS'w'
F209
sg12
L2202787771L
sa(dp196
g7
I01
sg8
VM:\u005cMovie\u005c\u7845\u8c37\u7b2c\u4e8c\u5b63Silicon
p197
sS'h'
F170
sg10
(lp198
F1071
aI33
asS'w'
F98
sg12
L1409961566L
sa(dp199
g7
I01
sg8
VM:\u005cMovie\u005c\u7845\u8c37\u7b2c\u4e00\u5b63.mkv
p200
sS'h'
F170
sg10
(lp201
F1169
aI33
asS'w'
F230
sg12
L3303336299L
sa(dp202
g7
I01
sg8
VM:\u005cMovie\u005c\u706b\u661f\u4efb\u52a1
p203
sS'h'
F100
sg10
(lp204
F1071
aF203
asS'w'
F68
sg12
L578988382L
sa(dp205
g7
I00
sg8
VM:\u005cMovie\u005c\u7f8e\u5973\u7684\u70e6\u607cDVD\u9ad8\u6e05.rmvb
p206
sS'h'
F100
sg10
(lp207
F1139
aF203
asS'w'
F67
sg12
L576677287L
sa(dp208
g7
I01
sg8
VM:\u005cMovie\u005c09.10.10.\u7b2c\u4e5d\u533a
p209
sS'h'
F100
sg10
(lp210
F1207
aF203
asS'w'
F192
sg12
L1622101399L
sa(dp211
g7
I01
sg8
VM:\u005cMovie\u005c\u8fc5\u96f7\u7535\u5f71\u9662\u9ad8\u6e05\u4e0b\u8f7d
p212
sS'h'
F243
sg10
(lp213
F1071
aF303
asS'w'
F329
sg12
L6710563384L
sa(dp214
g7
I01
sg8
VM:\u005cMovie\u005c\u98de\u9e1f\u5a31\u4e50(bbs.hdbird.com).\u5e9e\u8d1d\u672b\u65e5.720p.\u4e2d\u82f1\u5b57\u5e55
p215
sS'h'
F196
sg10
(lp216
F844
aF548
asS'w'
F142
sg12
L2345710930L
sa(dp217
g7
I01
sg8
VM:\u005cMovie\u005c\u98de\u9e1f\u5a31\u4e50(bbs.hdbird.com).\u6211\uff0c\u5f17\u5170\u80af\u65af\u5766.720p.\u4e2d\u82f1\u5b57\u5e55
p218
sS'h'
F196
sg10
(lp219
F844
aF744
asS'w'
F142
sg12
L2346523498L
sa(dp220
g7
I01
sg8
VM:\u005cMovie\u005cnorth and south tv mini series 1985 1986 1994
p221
sS'h'
F393
sg10
(lp222
F986
aF548
asS'w'
F414
sg12
L13655014234L
sa(dp223
g7
I01
sg8
VM:\u005cMovie\u005c\u3010\u7eff\u706f\u4fa0.Green.Lantern.First.Flight.2009 Catoon\u3011
p224
sS'h'
F143
sg10
(lp225
F844
aF941
asS'w'
F195
sg12
L2346936036L
sa(dp226
g7
I01
sg8
VM:\u005cMovie\u005c2010.12.28.[\u9ed1\u5929\u9e45].Black.Swan.2010
p227
sS'h'
F35
sg10
(lp228
F844
aF1084
asS'w'
F176
sg12
L536775024L
sa(dp229
g7
I01
sg8
VM:\u005cMovie\u005cTechnical
p230
sS'h'
F35
sg10
(lp231
F1020
aF1084
asS'w'
F18
sg12
L54946530L
sa(dp232
g7
I00
sg8
VM:\u005cMovie\u005c\u5fc3\u82b1\u8def\u653e.mp4
p233
sS'h'
F168
sg10
(lp234
F844
aF1119
asS'w'
F195
sg12
L2762474952L
sa(dp235
g7
I01
sg8
VM:\u005cMovie\u005c\u3010\u5929\u7a7a\u4e4b\u57ce 1986\u3011
p236
sS'h'
F56
sg10
(lp237
F1039
aF941
asS'w'
F119
sg12
L570521910L
sa(dp238
g7
I01
sg8
VM:\u005cMovie\u005c\u98de\u9e1f\u5a31\u4e50(bbs.hdbird.com).\u5206\u6b67\u8005\uff1a\u5f02\u7c7b\u89c9\u9192.720p.\u4e2d\u82f1\u5b57\u5e55
p239
sS'h'
F291
sg10
(lp240
F1039
aF997
asS'w'
F119
sg12
L2934823659L
sa(dp241
g7
I01
sg8
VM:\u005cMovie\u005cRoboCop.2014.1080p.WEB-DL.H264-RARBG
p242
sS'h'
F275
sg10
(lp243
F1158
aF941
asS'w'
F241
sg12
L5571567510L
sa(dp244
g7
I01
sg8
VM:\u005cMovie\u005c\u3010\u7279\u79cd\u90e8\u961f G.I.Joe.The.Rise.Of.Cobra\u3011
p245
sS'h'
F72
sg10
(lp246
F1158
aF1216
asS'w'
F241
sg12
L1475379690L
sa(dp247
g7
I01
sg8
VM:\u005cMovie\u005c\u732b\u548c\u8001\u9f20\uff1a\u522b\u78b0\u80e1\u987b
p248
sS'h'
F67
sg10
(lp249
F1401
aI33
asS'w'
F49
sg12
L279939385L
sa(dp250
g7
I01
sg8
VM:\u005cMovie\u005c\u3010\u54c8\u5c14\u7684\u79fb\u52a8\u57ce\u5821\u3011Haro'sCastale
p251
sS'h'
F67
sg10
(lp252
F1450
aI33
asS'w'
F131
sg12
L751019592L
sa(dp253
g7
I01
sg8
VM:\u005cMovie\u005c\u98de\u9e1f\u5a31\u4e50(bbs.hdbird.com).\u660e\u65e5\u8fb9\u7f18.720p.\u56fd\u82f1\u53cc\u8bed
p254
sS'h'
F178
sg10
(lp255
F1401
aF100
asS'w'
F181
sg12
L2728345245L
sa(dp256
g7
I01
sg8
VM:\u005cMovie\u005c\u3010\u690d\u7269\u5b66\u5bb6\u7684\u4e2d\u56fd\u5973\u5b69\u3011yunnan_chinese_gril_
p257
sS'h'
F246
sg10
(lp258
F1582
aI33
asS'w'
F227
sg12
L4690533395L
sa(dp259
g7
I01
sg8
VM:\u005cMovie\u005c\u3010\u98de\u5c4b\u73af\u6e38\u8bb0\u3011FlyingAroundWorld
p260
sS'h'
F92
sg10
(lp261
F1401
aF279
asS'w'
F51
sg12
L403870210L
sa(dp262
g7
I01
sg8
VM:\u005cMovie\u005c(download at superseeds.org) Falling.Skies.S01E07.HDTV.XviD-ASAP
p263
sS'h'
F83
sg10
(lp264
F1401
aF371
asS'w'
F51
sg12
L366903065L
sa(dp265
g7
I01
sg8
VM:\u005cMovie\u005c\u98de\u9e1f\u5a31\u4e50(bbs.hdbird.com).\u6843\u8272\u516c\u5bd3.720p.\u4e2d\u82f1\u5b57\u5e55
p266
sS'h'
F176
sg10
(lp267
F1452
aF279
asS'w'
F198
sg12
L2936227553L
sa(dp268
g7
I01
sg8
VM:\u005cMovie\u005c\u7845\u8c37SiliconValley
p269
sS'h'
F0
sg10
(lp270
F1651
aF279
asS'w'
F158
sg12
L72L
sa(dp271
g7
I01
sg8
VM:\u005cMovie\u005c\u98de\u9e1f\u5a31\u4e50(bbs.hdbird.com).\u5e03\u8fbe\u4f69\u65af\u5927\u996d\u5e97.720p.\u4e2d\u82f1\u5b57\u5e55
p272
sS'h'
F175
sg10
(lp273
F1651
aF279
asS'w'
F158
sg12
L2347029078L
sa(dp274
g7
I01
sg8
VM:\u005cMovie\u005c\u5bab\u5d0e\u9a8f
p275
sS'h'
F423
sg10
(lp276
F1810
aI33
asS'w'
F237
sg12
L8408106947L
sa(dp277
g7
I01
sg8
VM:\u005cMovie\u005c\u98de\u9e1f\u5a31\u4e50(bbs.hdbird.com).\u50f5\u5c38\u4e16\u754c\u5927\u6218.World War Z.RMVB.720p.\u4e2d\u82f1\u5b57\u5e55
p278
sS'h'
F83
sg10
(lp279
F2047
aI33
asS'w'
F185
sg12
L1301203816L
sa(dp280
g7
I01
sg8
VM:\u005cMovie\u005c\u98de\u9e1f\u5a31\u4e50(bbs.hdbird.com).\u96f6\u70b9\u5b9a\u7406.720p.\u4e2d\u82f1\u5b57\u5e55
p281
sS'h'
F150
sg10
(lp282
F2047
aF116
asS'w'
F185
sg12
L2346545723L
sa(dp283
g7
I01
sg8
VM:\u005cMovie\u005c\u98de\u9e1f\u5a31\u4e50(bbs.hdbird.com).\u8fa3\u624b\u8b66\u82b1\u672a\u5206\u7ea7\u7248.720p.\u4e2d\u82f1\u5b57\u5e55
p284
sS'h'
F188
sg10
(lp285
F2047
aF267
asS'w'
F185
sg12
L2937180977L
sa(dp286
g7
I00
sg8
VM:\u005cMovie\u005c\u524d\u5ea6[\u949f\u6b23\u6850\u9648\u4f1f\u9706\u56fd\u7ca4\u53cc\u8bed.\u4e2d\u6587\u5b57\u5e55].mkv
p287
sS'h'
F118
sg10
(lp288
F2232
aI33
asS'w'
F104
sg12
L1049537084L
sa(dp289
g7
I00
sg8
VM:\u005cMovie\u005cOffice.Space[1999]DVDRip.AC3[Eng].avi
p290
sS'h'
F83
sg10
(lp291
F2232
aF151
asS'w'
F104
sg12
L733188096L
sa(dp292
g7
I01
sg8
VM:\u005cMovie\u005c\u98de\u9e1f\u5a31\u4e50(bbs.hdbird.com).300\u52c7\u58eb\uff1a\u5e1d\u56fd\u5d1b\u8d77.720p.\u4e2d\u82f1\u5b57\u5e55
p293
sS'h'
F202
sg10
(lp294
F2336
aI33
asS'w'
F172
sg12
L2936479573L
sa(dp295
g7
I01
sg8
VM:\u005cMovie\u005c\u98de\u9e1f\u5a31\u4e50[bbs.hdbird.com].\u50f5\u5c38\u4e16\u754c\u5927\u6218.720p.\u4fee\u6b63\u4e2d\u82f1\u5b57\u5e55
p296
sS'h'
F220
sg10
(lp297
F2232
aF235
asS'w'
F158
sg12
L2936562583L
sa(dp298
g7
I01
sg8
VM:\u005cMovie\u005cthe last of the mohicans 1992 x264 dts waf
p299
sS'h'
F220
sg10
(lp300
F2390
aF235
asS'w'
F118
sg12
L2209023871L
sa(dp301
g7
I01
sg8
VM:\u005cMovie\u005c\u98de\u9e1f\u5a31\u4e50[bbs.hdbird.com].\u661f\u9645\u8ff7\u822a12\u90e8\u5408\u96c6.720P.\u56fd\u82f1\u53cc\u8bed
p302
sS'h'
F834
sg10
(lp303
F1401
aF456
asS'w'
F513
sg12
L35800288001L
sa(dp304
g7
I01
sg8
VM:\u005cMovie\u005cAge.of.Innocence
p305
sS'h'
F140
sg10
(lp306
F1914
aF456
asS'w'
F119
sg12
L1418787785L
sa(dp307
g7
I01
sg8
VM:\u005cMovie\u005cSense.and.Sensibility
p308
sS'h'
F140
sg10
(lp309
F2033
aF456
asS'w'
F124
sg12
L1469355537L
sa(dp310
g7
I01
sg8
VM:\u005cMovie\u005c\u3010\u6495\u88c2\u5730\u5e73\u7ebf.Event.Horizon\u3011
p311
sS'h'
F143
sg10
(lp312
F1914
aF596
asS'w'
F121
sg12
L1467442472L
sa(dp313
g7
I01
sg8
VM:\u005cMovie\u005c[ www.Torrenting.com ] - Iron.Sky.2012.AC3.DVDRip.XViD-ReminxHD
p314
sS'h'
F143
sg10
(lp315
F2035
aF596
asS'w'
F122
sg12
L1472228420L
sa(dp316
g7
I00
sg8
VM:\u005cMovie\u005c[\u53d8\u5f62\u91d1\u521a2007\u771f\u4eba\u9ad8\u6e05\u6670\u9884\u544a\u7247][\u8ba9\u6211\u4eec\u5171\u540c\u6253\u9020\u957f\u57ce\u5bbd\u5e26\u6700\u597d\u7684bt\u7ad9][dogteeth110.3322.org].mkv
p317
sS'h'
F67
sg10
(lp318
F2158
aF456
asS'w'
F17
sg12
L102247372L
sa(dp319
g7
I01
sg8
VM:\u005cMovie\u005cbbs.wofei.net@\u61a8\u8c46\u5148\u751f\u7684\u5047\u671f
p320
sS'h'
F67
sg10
(lp321
F2175
aF456
asS'w'
F101
sg12
L576675841L
sa(dp322
g7
I01
sg8
VM:\u005cMovie\u005c\u3010\u8d4e\u7f6a\u3011Expiation
p323
sS'h'
F67
sg10
(lp324
F2277
aF456
asS'w'
F81
sg12
L463428910L
sa(dp325
g7
I01
sg8
VM:\u005cMovie\u005c\u98de\u9e1f\u5a31\u4e50(bbs.hdbird.com).\u53d8\u5f62\u91d1\u521a4\uff1a\u7edd\u8ff9\u91cd\u751f.720p.\u4e2d\u82f1\u5b57\u5e55
p326
sS'h'
F216
sg10
(lp327
F2158
aF523
asS'w'
F201
sg12
L3669624879L
sa(dp328
g7
I01
sg8
VM:\u005cMovie\u005c\u3010\u72c4\u4ec1\u6770\u4e4b\u901a\u5929\u5e1d\u56fd\u3011DiRenJie
p329
sS'h'
F97
sg10
(lp330
F2359
aF456
asS'w'
F60
sg12
L496545821L
sa(dp331
g7
I01
sg8
VM:\u005cMovie\u005c\u6700\u540e\u7684\u6469\u6839\u6218\u58eb
p332
sS'h'
F97
sg10
(lp333
F2419
aF456
asS'w'
F89
sg12
L734725438L
sa(dp334
g7
I01
sg8
VM:\u005cMovie\u005c\u98de\u9e1f\u5a31\u4e50(bbs.hdbird.com).\u51b0\u96ea\u5947\u7f18.720p.\u4e2d\u82f1\u5b57\u5e55
p335
sS'h'
F186
sg10
(lp336
F2359
aF553
asS'w'
F150
sg12
L2347857182L
sa(dp337
g7
I01
sg8
VM:\u005cMovie\u005c[www.23.net]\u94a2\u94c1\u82cd\u7a79[DIY\u7b80\u7e41\u4e2d\u5b57]2012.Blu-Ray.1080P.H264.DTS-HDMA.-george.c
p338
sS'h'
F549
sg10
(lp339
F1914
aF740
asS'w'
F466
sg12
L21452632173L
sa(dp340
g7
I01
sg8
VM:\u005cMovie\u005c\u3010\u4f4e\u4fd7\u559c\u5267\u3011
p341
sS'h'
F312
sg10
(lp342
F2380
aF740
asS'w'
F130
sg12
L3402758648L
sa(dp343
g7
I01
sg8
VM:\u005cMovie\u005c\u536b\u65af\u7406\u4e4b\u84dd\u8840\u4eba
p344
sS'h'
F236
sg10
(lp345
F2380
aF1052
asS'w'
F130
sg12
L2574580763L
satp346
atRp347
(dp348
S'sizeLimit'
p349
I10
sS'point'
p350
I1
sb.